target datalayout = "e-m:e-p270:32:32-p271:32:32-p272:64:64-i64:64-i128:128-f80:128-n8:16:32:64-S128"
target triple = "x86_64-pc-linux-gnu"

%class.rational = type { %class.mpq }
%class.mpq = type { %class.mpz, %class.mpz }
%class.mpz = type { i32, i8, ptr }
%class.ref_vector = type { %class.ref_vector_core }
%class.ref_vector_core = type { %class.ref_manager_wrapper, %class.ptr_vector }
%class.ref_manager_wrapper = type { ptr }
%class.ptr_vector = type { %class.vector.4 }
%class.vector.4 = type { ptr }
%class.pb_util = type { ptr, i32, %class.vector.289, %class.vector.290, %class.rational }
%class.vector.289 = type { ptr }
%class.vector.290 = type { ptr }
%class.svector.87 = type { %class.vector.88 }
%class.vector.88 = type { ptr }
%class.ptr_vector.164 = type { %class.vector.165 }
%class.vector.165 = type { ptr }
%class.svector.5 = type { %class.vector.6 }
%class.vector.6 = type { ptr }
%class.svector.195 = type { %class.vector.196 }
%class.vector.196 = type { ptr }
%class.uint_set = type { %class.svector.5 }
%class.svector.254 = type { %class.vector.255 }
%class.vector.255 = type { ptr }
%class.svector.11 = type { %class.vector.12 }
%class.vector.12 = type { ptr }
%"class.smt::theory_pb" = type { %"class.smt::theory.base", [3 x i8], %struct.theory_pb_params, %class.svector.291, %class.mpz_manager, %class._scoped_numeral_vector, %class.svector.5, %class.svector.5, %class.svector.195, %class.pb_util, %"struct.smt::theory_pb::stats", i32, i8, i32, i32, %class.uint_set, %class.svector.5, %class.svector.5, i32, %class.svector.195, i32, %class.svector.87, %class.svector.5, i32, %class.svector.195, %class.tracked_uint_set, %class.ref_vector, %class.svector.11, %class.ref_vector, %class.svector.11, %class.vector.295, %class.svector.5 }
%"class.smt::theory.base" = type <{ ptr, i32, [4 x i8], ptr, ptr, %class.ptr_vector.164, %class.svector.5, i32, i8 }>
%struct.theory_pb_params = type <{ i32, i8, [3 x i8] }>
%class.svector.291 = type { %class.vector.292 }
%class.vector.292 = type { ptr }
%class.mpz_manager = type { %class.small_object_allocator, %"class.std::recursive_mutex", [4 x i8], i32, %class.mpz, %class.mpz }
%class.small_object_allocator = type { [32 x ptr], [32 x ptr], i64 }
%"class.std::recursive_mutex" = type { %"class.std::__recursive_mutex_base" }
%"class.std::__recursive_mutex_base" = type { %union.pthread_mutex_t }
%union.pthread_mutex_t = type { %struct.__pthread_mutex_s }
%struct.__pthread_mutex_s = type { i32, i32, i32, i32, i32, i16, i16, %struct.__pthread_internal_list }
%struct.__pthread_internal_list = type { ptr, ptr }
%class._scoped_numeral_vector = type { %class.svector.293, ptr }
%class.svector.293 = type { %class.vector.294 }
%class.vector.294 = type { ptr }
%"struct.smt::theory_pb::stats" = type { i32, i32, i32, i32 }
%class.tracked_uint_set = type { %class.svector.254, %class.svector.5 }
%class.vector.295 = type { ptr }

; Function Attrs: mustprogress nounwind uwtable
define linkonce_odr hidden noundef i32 @_ZNK6vectorIiLb0EjE4sizeEv(ptr noundef nonnull align 8 dereferenceable(8) %0) #4 comdat align 2 {
  %2 = alloca i32, align 4
  %3 = alloca ptr, align 8
  store ptr %0, ptr %3, align 8, !tbaa !697
  %4 = load ptr, ptr %3, align 8
  %5 = getelementptr inbounds nuw %class.vector.88, ptr %4, i32 0, i32 0
  %6 = load ptr, ptr %5, align 8, !tbaa !875
  %7 = icmp eq ptr %6, null
  br i1 %7, label %8, label %9

8:                                                ; preds = %1
  store i32 0, ptr %2, align 4
  br label %14

9:                                                ; preds = %1
  %10 = getelementptr inbounds nuw %class.vector.88, ptr %4, i32 0, i32 0
  %11 = load ptr, ptr %10, align 8, !tbaa !875
  %12 = getelementptr inbounds i32, ptr %11, i64 -1
  %13 = load i32, ptr %12, align 4, !tbaa !8
  store i32 %13, ptr %2, align 4
  br label %14

14:                                               ; preds = %9, %8
  %15 = load i32, ptr %2, align 4
  ret i32 %15
}

; Function Attrs: mustprogress uwtable
define linkonce_odr hidden noundef nonnull align 4 dereferenceable(4) ptr @_ZNK6vectorIiLb0EjE3getEjRKi(ptr noundef nonnull align 8 dereferenceable(8) %0, i32 noundef %1, ptr noundef nonnull align 4 dereferenceable(4) %2) #6 comdat align 2 {
  %4 = alloca ptr, align 8
  %5 = alloca ptr, align 8
  %6 = alloca i32, align 4
  %7 = alloca ptr, align 8
  store ptr %0, ptr %5, align 8, !tbaa !697
  store i32 %1, ptr %6, align 4, !tbaa !8
  store ptr %2, ptr %7, align 8, !tbaa !730
  %8 = load ptr, ptr %5, align 8
  %9 = load i32, ptr %6, align 4, !tbaa !8
  %10 = call noundef i32 @_ZNK6vectorIiLb0EjE4sizeEv(ptr noundef nonnull align 8 dereferenceable(8) %8)
  %11 = icmp uge i32 %9, %10
  br i1 %11, label %12, label %14

12:                                               ; preds = %3
  %13 = load ptr, ptr %7, align 8, !tbaa !730
  store ptr %13, ptr %4, align 8
  br label %20

14:                                               ; preds = %3
  %15 = getelementptr inbounds nuw %class.vector.88, ptr %8, i32 0, i32 0
  %16 = load ptr, ptr %15, align 8, !tbaa !875
  %17 = load i32, ptr %6, align 4, !tbaa !8
  %18 = zext i32 %17 to i64
  %19 = getelementptr inbounds nuw i32, ptr %16, i64 %18
  store ptr %19, ptr %4, align 8
  br label %20

20:                                               ; preds = %14, %12
  %21 = load ptr, ptr %4, align 8
  ret ptr %21
}

; Function Attrs: mustprogress uwtable
define hidden noundef i32 @_ZNK3smt9theory_pb9get_coeffEj(ptr noundef nonnull align 8 dereferenceable(968) %0, i32 noundef %1) #6 align 2 {
  %3 = alloca ptr, align 8
  %4 = alloca i32, align 4
  %5 = alloca i32, align 4
  store ptr %0, ptr %3, align 8, !tbaa !624
  store i32 %1, ptr %4, align 4, !tbaa !8
  %6 = load ptr, ptr %3, align 8
  %7 = getelementptr inbounds nuw %"class.smt::theory_pb", ptr %6, i32 0, i32 21
  %8 = load i32, ptr %4, align 4, !tbaa !8
  call void @llvm.lifetime.start.p0(i64 4, ptr %5) #3
  store i32 0, ptr %5, align 4, !tbaa !8
  %9 = call noundef nonnull align 4 dereferenceable(4) ptr @_ZNK6vectorIiLb0EjE3getEjRKi(ptr noundef nonnull align 8 dereferenceable(8) %7, i32 noundef %8, ptr noundef nonnull align 4 dereferenceable(4) %5)
  %10 = load i32, ptr %9, align 4, !tbaa !8
  call void @llvm.lifetime.end.p0(i64 4, ptr %5) #3
  ret i32 %10
}

; Function Attrs: mustprogress uwtable
define hidden noundef i32 @_ZNK3smt9theory_pb13get_abs_coeffEj(ptr noundef nonnull align 8 dereferenceable(968) %0, i32 noundef %1) #6 align 2 {
  %3 = alloca ptr, align 8
  %4 = alloca i32, align 4
  %5 = alloca i32, align 4
  store ptr %0, ptr %3, align 8, !tbaa !624
  store i32 %1, ptr %4, align 4, !tbaa !8
  %6 = load ptr, ptr %3, align 8
  call void @llvm.lifetime.start.p0(i64 4, ptr %5) #3
  %7 = load i32, ptr %4, align 4, !tbaa !8
  %8 = call noundef i32 @_ZNK3smt9theory_pb9get_coeffEj(ptr noundef nonnull align 8 dereferenceable(968) %6, i32 noundef %7)
  store i32 %8, ptr %5, align 4, !tbaa !8
  %9 = load i32, ptr %5, align 4, !tbaa !8
  %10 = icmp slt i32 %9, 0
  br i1 %10, label %11, label %14

11:                                               ; preds = %2
  %12 = load i32, ptr %5, align 4, !tbaa !8
  %13 = sub nsw i32 0, %12
  store i32 %13, ptr %5, align 4, !tbaa !8
  br label %14

14:                                               ; preds = %11, %2
  %15 = load i32, ptr %5, align 4, !tbaa !8
  call void @llvm.lifetime.end.p0(i64 4, ptr %5) #3
  ret i32 %15
}