; Function Attrs: mustprogress nofree norecurse nosync nounwind willreturn memory(read, inaccessiblemem: none) uwtable
define hidden noundef range(i32 0, -2147483648) i32 @_ZNK3smt9theory_pb13get_abs_coeffEj(ptr noundef nonnull readonly align 8 captures(none) dereferenceable(968) %0, i32 noundef %1) local_unnamed_addr #11 align 2 {
  %3 = getelementptr inbounds nuw i8, ptr %0, i64 856
  %4 = load ptr, ptr %3, align 8, !tbaa !735
  %5 = icmp eq ptr %4, null
  br i1 %5, label %_ZNK3smt9theory_pb9get_coeffEj.exit.thread, label %_ZNK6vectorIiLb0EjE3getEjRKi.exit.i

_ZNK6vectorIiLb0EjE3getEjRKi.exit.i:              ; preds = %2
  %6 = getelementptr inbounds i8, ptr %4, i64 -4
  %7 = load i32, ptr %6, align 4, !tbaa !9
  %.not.i.i = icmp ult i32 %1, %7
  br i1 %.not.i.i, label %_ZNK3smt9theory_pb9get_coeffEj.exit, label %_ZNK3smt9theory_pb9get_coeffEj.exit.thread

_ZNK3smt9theory_pb9get_coeffEj.exit:              ; preds = %_ZNK6vectorIiLb0EjE3getEjRKi.exit.i
  %8 = zext i32 %1 to i64
  %9 = getelementptr inbounds nuw i32, ptr %4, i64 %8
  %.then.val.i = load i32, ptr %9, align 4, !tbaa !9
  %.then.val.i.fr = freeze i32 %.then.val.i
  %spec.select = tail call i32 @llvm.abs.i32(i32 %.then.val.i.fr, i1 true)
  br label %_ZNK3smt9theory_pb9get_coeffEj.exit.thread

_ZNK3smt9theory_pb9get_coeffEj.exit.thread:       ; preds = %_ZNK3smt9theory_pb9get_coeffEj.exit, %2, %_ZNK6vectorIiLb0EjE3getEjRKi.exit.i
  %10 = phi i32 [ 0, %_ZNK6vectorIiLb0EjE3getEjRKi.exit.i ], [ 0, %2 ], [ %spec.select, %_ZNK3smt9theory_pb9get_coeffEj.exit ]
  ret i32 %10
}